target datalayout = "e-m:e-p270:32:32-p271:32:32-p272:64:64-i64:64-i128:128-f80:128-n8:16:32:64-S128"
target triple = "x86_64-pc-linux-gnu"

@.str.18 = private unnamed_addr constant [5 x i8] c"pmix\00", align 1
@.str.30 = private unnamed_addr constant [14 x i8] c"lib-call-fail\00", align 1
@.str.31 = private unnamed_addr constant [14 x i8] c"mca_base_open\00", align 1
@.str.32 = private unnamed_addr constant [10 x i8] c"support.c\00", align 1
@stderr = external global ptr, align 8
@pmix_frameworks = external global [0 x ptr], align 8
@pmix_info_registered = internal global i32 0, align 4
@.str.43 = private unnamed_addr constant [19 x i8] c"help-pmix_info.txt\00", align 1
@.str.44 = private unnamed_addr constant [49 x i8] c"pmix_info_register: pmix_register_params failed\0A\00", align 1

; Function Attrs: nounwind uwtable
define dso_local i32 @pmix_info_register_framework_params() #0 {
  %1 = alloca i32, align 4
  %2 = alloca i32, align 4
  %3 = alloca i32, align 4
  call void @llvm.lifetime.start.p0(i64 4, ptr %2) #13
  %4 = load i32, ptr @pmix_info_registered, align 4, !tbaa !18
  %5 = add nsw i32 %4, 1
  store i32 %5, ptr @pmix_info_registered, align 4, !tbaa !18
  %6 = icmp ne i32 %4, 0
  br i1 %6, label %7, label %8

7:                                                ; preds = %0
  store i32 0, ptr %1, align 4
  store i32 1, ptr %3, align 4
  br label %22

8:                                                ; preds = %0
  %9 = call i32 @pmix_mca_base_open(ptr noundef null)
  %10 = icmp ne i32 0, %9
  br i1 %10, label %11, label %13

11:                                               ; preds = %8
  %12 = call i32 (ptr, ptr, i32, ...) @pmix_show_help(ptr noundef @.str.43, ptr noundef @.str.30, i32 noundef 1, ptr noundef @.str.31, ptr noundef @.str.32, i32 noundef 262)
  store i32 -1, ptr %1, align 4
  store i32 1, ptr %3, align 4
  br label %22

13:                                               ; preds = %8
  %14 = call i32 @pmix_register_params()
  store i32 %14, ptr %2, align 4, !tbaa !18
  %15 = icmp ne i32 0, %14
  br i1 %15, label %16, label %20

16:                                               ; preds = %13
  %17 = load ptr, ptr @stderr, align 8, !tbaa !25
  %18 = call i32 (ptr, ptr, ...) @fprintf(ptr noundef %17, ptr noundef @.str.44) #13
  %19 = load i32, ptr %2, align 4, !tbaa !18
  store i32 %19, ptr %1, align 4
  store i32 1, ptr %3, align 4
  br label %22

20:                                               ; preds = %13
  %21 = call i32 @pmix_info_register_project_frameworks(ptr noundef @.str.18, ptr noundef @pmix_frameworks)
  store i32 %21, ptr %1, align 4
  store i32 1, ptr %3, align 4
  br label %22

22:                                               ; preds = %20, %16, %11, %7
  call void @llvm.lifetime.end.p0(i64 4, ptr %2) #13
  %23 = load i32, ptr %1, align 4
  ret i32 %23
}