; Function Attrs: nounwind uwtable
define dso_local i32 @pmix_info_register_framework_params() local_unnamed_addr #2 {
  %1 = load i32, ptr @pmix_info_registered, align 4, !tbaa !18
  %2 = add nsw i32 %1, 1
  store i32 %2, ptr @pmix_info_registered, align 4, !tbaa !18
  %.not = icmp eq i32 %1, 0
  br i1 %.not, label %3, label %14

3:                                                ; preds = %0
  %4 = tail call i32 @pmix_mca_base_open(ptr noundef null) #17
  %.not3 = icmp eq i32 %4, 0
  br i1 %.not3, label %7, label %5

5:                                                ; preds = %3
  %6 = tail call i32 (ptr, ptr, i32, ...) @pmix_show_help(ptr noundef nonnull @.str.43, ptr noundef nonnull @.str.30, i32 noundef 1, ptr noundef nonnull @.str.31, ptr noundef nonnull @.str.32, i32 noundef 262) #17
  br label %14

7:                                                ; preds = %3
  %8 = tail call i32 @pmix_register_params() #17
  %.not4 = icmp eq i32 %8, 0
  br i1 %.not4, label %12, label %9

9:                                                ; preds = %7
  %10 = load ptr, ptr @stderr, align 8, !tbaa !27
  %11 = tail call i64 @fwrite(ptr nonnull @.str.44, i64 48, i64 1, ptr %10) #19
  br label %14

12:                                               ; preds = %7
  %13 = tail call i32 @pmix_info_register_project_frameworks(ptr noundef nonnull @.str.18, ptr noundef nonnull @pmix_frameworks)
  br label %14

14:                                               ; preds = %0, %12, %9, %5
  %.0 = phi i32 [ -1, %5 ], [ %8, %9 ], [ %13, %12 ], [ 0, %0 ]
  ret i32 %.0
}